; Function Attrs: nounwind uwtable
define dso_local range(i64 -2147483647, 2147483648) i64 @int4inc(ptr noundef readonly captures(none) %0) local_unnamed_addr #0 {
  %2 = getelementptr inbounds nuw i8, ptr %0, i64 32
  %3 = load i64, ptr %2, align 8
  %4 = trunc i64 %3 to i32
  %5 = tail call { i32, i1 } @llvm.sadd.with.overflow.i32(i32 %4, i32 1)
  %6 = extractvalue { i32, i1 } %5, 1
  br i1 %6, label %7, label %11, !prof !14

7:                                                ; preds = %1
  %8 = tail call zeroext i1 @errstart_cold(i32 noundef 21, ptr noundef null) #15
  tail call void @llvm.assume(i1 %8)
  %9 = tail call i32 @errcode(i32 noundef 50331778) #13
  %10 = tail call i32 (ptr, ...) @errmsg(ptr noundef nonnull @.str.7) #13
  tail call void @errfinish(ptr noundef nonnull @.str.2, i32 noundef 880, ptr noundef nonnull @__func__.int4inc) #13
  unreachable

11:                                               ; preds = %1
  %12 = extractvalue { i32, i1 } %5, 0
  %13 = sext i32 %12 to i64
  ret i64 %13
}